; Function Attrs: nounwind uwtable
define noalias nonnull ptr @l_Lean_Elab_Tactic_BVDecide_Frontend_Normalize_bv__add___lambda__6(ptr noundef %0, ptr noundef %1, ptr noundef %2, ptr readnone captures(none) %3, ptr readnone captures(none) %4, ptr readnone captures(none) %5, ptr readnone captures(none) %6, ptr readnone captures(none) %7, ptr noundef %8) local_unnamed_addr #0 {
  %10 = load ptr, ptr @l_Lean_Elab_Tactic_BVDecide_Frontend_Normalize_bv__add___lambda__6___closed__3, align 8, !tbaa !4
  %11 = tail call ptr @l_Lean_mkAppB(ptr noundef %10, ptr noundef %0, ptr noundef %1) #5
  %12 = tail call ptr @l_BitVec_ofNat(ptr noundef %2, ptr noundef nonnull inttoptr (i64 1 to ptr)) #5
  %13 = tail call ptr @l_Lean_mkNatLit(ptr noundef %2) #5
  %14 = tail call ptr @l_Lean_mkNatLit(ptr noundef %12) #5
  %15 = load ptr, ptr @l_Lean_Elab_Tactic_BVDecide_Frontend_Normalize_bv__and___lambda__3___closed__12, align 8, !tbaa !4
  %16 = tail call ptr @l_Lean_mkAppB(ptr noundef %15, ptr noundef %13, ptr noundef %14) #5
  tail call void @lean_inc_heartbeat() #5
  %17 = tail call noalias ptr @mi_malloc_small(i64 noundef 16) #5
  %18 = icmp eq ptr %17, null
  br i1 %18, label %19, label %lean_alloc_ctor.exit

19:                                               ; preds = %9
  tail call void @lean_internal_panic_out_of_memory() #6
  unreachable

lean_alloc_ctor.exit:                             ; preds = %9
  %20 = getelementptr inbounds nuw i8, ptr %17, i64 4
  store i32 1, ptr %17, align 4, !tbaa !8
  store i32 16842768, ptr %20, align 4
  %21 = getelementptr inbounds nuw i8, ptr %17, i64 8
  store ptr %11, ptr %21, align 8, !tbaa !4
  tail call void @lean_inc_heartbeat() #5
  %22 = tail call noalias ptr @mi_malloc_small(i64 noundef 32) #5
  %23 = icmp eq ptr %22, null
  br i1 %23, label %24, label %lean_alloc_ctor.exit26

24:                                               ; preds = %lean_alloc_ctor.exit
  tail call void @lean_internal_panic_out_of_memory() #6
  unreachable

lean_alloc_ctor.exit26:                           ; preds = %lean_alloc_ctor.exit
  %25 = getelementptr inbounds nuw i8, ptr %22, i64 4
  %26 = getelementptr inbounds nuw i8, ptr %22, i64 24
  store i64 1, ptr %26, align 8, !tbaa !12
  store i32 1, ptr %22, align 4, !tbaa !8
  store i32 131104, ptr %25, align 4
  %27 = getelementptr inbounds nuw i8, ptr %22, i64 8
  store ptr %16, ptr %27, align 8, !tbaa !4
  %28 = getelementptr inbounds nuw i8, ptr %22, i64 16
  store ptr %17, ptr %28, align 8, !tbaa !4
  tail call void @lean_inc_heartbeat() #5
  %29 = tail call noalias ptr @mi_malloc_small(i64 noundef 16) #5
  %30 = icmp eq ptr %29, null
  br i1 %30, label %31, label %lean_alloc_ctor.exit27

31:                                               ; preds = %lean_alloc_ctor.exit26
  tail call void @lean_internal_panic_out_of_memory() #6
  unreachable

lean_alloc_ctor.exit27:                           ; preds = %lean_alloc_ctor.exit26
  %32 = getelementptr inbounds nuw i8, ptr %29, i64 4
  store i32 1, ptr %29, align 4, !tbaa !8
  store i32 16842768, ptr %32, align 4
  %33 = getelementptr inbounds nuw i8, ptr %29, i64 8
  store ptr %22, ptr %33, align 8, !tbaa !4
  tail call void @lean_inc_heartbeat() #5
  %34 = tail call noalias ptr @mi_malloc_small(i64 noundef 16) #5
  %35 = icmp eq ptr %34, null
  br i1 %35, label %36, label %lean_alloc_ctor.exit28

36:                                               ; preds = %lean_alloc_ctor.exit27
  tail call void @lean_internal_panic_out_of_memory() #6
  unreachable

lean_alloc_ctor.exit28:                           ; preds = %lean_alloc_ctor.exit27
  %37 = getelementptr inbounds nuw i8, ptr %34, i64 4
  store i32 1, ptr %34, align 4, !tbaa !8
  store i32 16842768, ptr %37, align 4
  %38 = getelementptr inbounds nuw i8, ptr %34, i64 8
  store ptr %29, ptr %38, align 8, !tbaa !4
  tail call void @lean_inc_heartbeat() #5
  %39 = tail call noalias ptr @mi_malloc_small(i64 noundef 24) #5
  %40 = icmp eq ptr %39, null
  br i1 %40, label %41, label %lean_alloc_ctor.exit29

41:                                               ; preds = %lean_alloc_ctor.exit28
  tail call void @lean_internal_panic_out_of_memory() #6
  unreachable

lean_alloc_ctor.exit29:                           ; preds = %lean_alloc_ctor.exit28
  %42 = getelementptr inbounds nuw i8, ptr %39, i64 4
  store i32 1, ptr %39, align 4, !tbaa !8
  store i32 131096, ptr %42, align 4
  %43 = getelementptr inbounds nuw i8, ptr %39, i64 8
  store ptr %34, ptr %43, align 8, !tbaa !4
  %44 = getelementptr inbounds nuw i8, ptr %39, i64 16
  store ptr %8, ptr %44, align 8, !tbaa !4
  ret ptr %39
}